; Function Attrs: nounwind uwtable
define dso_local void @int_neg(ptr dead_on_unwind noalias writable writeonly sret(%struct.Int) align 8 captures(none) initializes((0, 20)) %0, ptr noundef readonly byval(%struct.Int) align 8 captures(none) %1) local_unnamed_addr #0 {
  %3 = getelementptr inbounds nuw i8, ptr %1, i64 16
  %4 = load i32, ptr %3, align 8
  tail call void @llvm.experimental.noalias.scope.decl(metadata !14)
  %.sroa.0.0.copyload = load i64, ptr %1, align 8
  %.sroa.42.0..sroa_idx = getelementptr inbounds nuw i8, ptr %1, i64 8
  %.sroa.42.0.copyload = load i64, ptr %.sroa.42.0..sroa_idx, align 8
  %5 = icmp ne i64 %.sroa.42.0.copyload, 0
  %6 = sext i1 %5 to i64
  %spec.select.i.i = sub i64 %6, %.sroa.0.0.copyload
  %7 = sub i64 0, %.sroa.42.0.copyload
  %8 = tail call { i64, i64 } @i128_extend(i64 %spec.select.i.i, i64 %7, i32 noundef %4), !noalias !14
  %9 = extractvalue { i64, i64 } %8, 0
  store i64 %9, ptr %0, align 8, !alias.scope !14
  %10 = getelementptr inbounds nuw i8, ptr %0, i64 8
  %11 = extractvalue { i64, i64 } %8, 1
  store i64 %11, ptr %10, align 8, !alias.scope !14
  %12 = getelementptr inbounds nuw i8, ptr %0, i64 16
  store i32 %4, ptr %12, align 8, !alias.scope !14
  ret void
}